target datalayout = "e-m:e-p270:32:32-p271:32:32-p272:64:64-i64:64-i128:128-f80:128-n8:16:32:64-S128"
target triple = "x86_64-pc-linux-gnu"

%struct.self_test_arg = type { i32 }

@provider_name = internal global ptr null, align 8
@libctx = internal global ptr null, align 8
@.str.18 = private unnamed_addr constant [5 x i8] c"fips\00", align 1
@self_test_args = internal global %struct.self_test_arg zeroinitializer, align 4
@.str.19 = private unnamed_addr constant [23 x i8] c"Failed to load config\0A\00", align 1
@.str.20 = private unnamed_addr constant [21 x i8] c"test_provider_status\00", align 1
@.str.21 = private unnamed_addr constant [30 x i8] c"test_provider_gettable_params\00", align 1

; Function Attrs: nounwind uwtable
define dso_local i32 @setup_tests() #0 {
  %1 = alloca i32, align 4
  %2 = alloca i32, align 4
  %3 = alloca ptr, align 8
  %4 = alloca i32, align 4
  call void @llvm.lifetime.start.p0(i64 4, ptr %2) #5
  call void @llvm.lifetime.start.p0(i64 8, ptr %3) #5
  store ptr null, ptr %3, align 8, !tbaa !4
  br label %5

5:                                                ; preds = %17, %0
  %6 = call i32 @opt_next()
  store i32 %6, ptr %2, align 4, !tbaa !9
  %7 = icmp ne i32 %6, 0
  br i1 %7, label %8, label %18

8:                                                ; preds = %5
  %9 = load i32, ptr %2, align 4, !tbaa !9
  switch i32 %9, label %15 [
    i32 2, label %10
    i32 1, label %12
    i32 500, label %14
    i32 501, label %14
    i32 502, label %14
    i32 503, label %14
    i32 504, label %14
    i32 505, label %14
    i32 -1, label %16
  ]

10:                                               ; preds = %8
  %11 = call ptr @opt_arg()
  store ptr %11, ptr %3, align 8, !tbaa !4
  br label %17

12:                                               ; preds = %8
  %13 = call ptr @opt_arg()
  store ptr %13, ptr @provider_name, align 8, !tbaa !4
  br label %17

14:                                               ; preds = %8, %8, %8, %8, %8, %8
  br label %17

15:                                               ; preds = %8
  br label %16

16:                                               ; preds = %8, %15
  store i32 0, ptr %1, align 4
  store i32 1, ptr %4, align 4
  br label %38

17:                                               ; preds = %14, %12, %10
  br label %5, !llvm.loop !11

18:                                               ; preds = %5
  %19 = call ptr @OSSL_LIB_CTX_new()
  store ptr %19, ptr @libctx, align 8, !tbaa !13
  %20 = load ptr, ptr @libctx, align 8, !tbaa !13
  %21 = icmp eq ptr %20, null
  br i1 %21, label %22, label %23

22:                                               ; preds = %18
  store i32 0, ptr %1, align 4
  store i32 1, ptr %4, align 4
  br label %38

23:                                               ; preds = %18
  %24 = load ptr, ptr @provider_name, align 8, !tbaa !4
  %25 = call i32 @strcmp(ptr noundef %24, ptr noundef @.str.18) #6
  %26 = icmp eq i32 %25, 0
  br i1 %26, label %27, label %36

27:                                               ; preds = %23
  store i32 0, ptr @self_test_args, align 4, !tbaa !15
  %28 = load ptr, ptr @libctx, align 8, !tbaa !13
  call void @OSSL_SELF_TEST_set_callback(ptr noundef %28, ptr noundef @self_test_on_load, ptr noundef @self_test_args)
  %29 = load ptr, ptr @libctx, align 8, !tbaa !13
  %30 = load ptr, ptr %3, align 8, !tbaa !4
  %31 = call i32 @OSSL_LIB_CTX_load_config(ptr noundef %29, ptr noundef %30)
  %32 = icmp ne i32 %31, 0
  br i1 %32, label %35, label %33

33:                                               ; preds = %27
  %34 = call i32 (ptr, ...) @opt_printf_stderr(ptr noundef @.str.19)
  store i32 0, ptr %1, align 4
  store i32 1, ptr %4, align 4
  br label %38

35:                                               ; preds = %27
  call void @add_test(ptr noundef @.str.20, ptr noundef @test_provider_status)
  br label %37

36:                                               ; preds = %23
  call void @add_test(ptr noundef @.str.21, ptr noundef @test_provider_gettable_params)
  br label %37

37:                                               ; preds = %36, %35
  store i32 1, ptr %1, align 4
  store i32 1, ptr %4, align 4
  br label %38

38:                                               ; preds = %37, %33, %22, %16
  call void @llvm.lifetime.end.p0(i64 8, ptr %3) #5
  call void @llvm.lifetime.end.p0(i64 4, ptr %2) #5
  %39 = load i32, ptr %1, align 4
  ret i32 %39
}