; Function Attrs: nounwind uwtable
define dso_local range(i32 0, 2) i32 @setup_tests() local_unnamed_addr #1 {
  br label %1

1:                                                ; preds = %.backedge, %0
  %.0 = phi ptr [ null, %0 ], [ %.0.be, %.backedge ]
  %2 = tail call i32 @opt_next() #6
  switch i32 %2, label %.loopexit [
    i32 0, label %7
    i32 2, label %3
    i32 1, label %5
    i32 500, label %.backedge
    i32 501, label %.backedge
    i32 502, label %.backedge
    i32 503, label %.backedge
    i32 504, label %.backedge
    i32 505, label %.backedge
  ]

.backedge:                                        ; preds = %1, %1, %1, %1, %1, %1, %5, %3
  %.0.be = phi ptr [ %.0, %5 ], [ %4, %3 ], [ %.0, %1 ], [ %.0, %1 ], [ %.0, %1 ], [ %.0, %1 ], [ %.0, %1 ], [ %.0, %1 ]
  br label %1, !llvm.loop !4

3:                                                ; preds = %1
  %4 = tail call ptr @opt_arg() #6
  br label %.backedge

5:                                                ; preds = %1
  %6 = tail call ptr @opt_arg() #6
  store ptr %6, ptr @provider_name, align 8, !tbaa !6
  br label %.backedge

7:                                                ; preds = %1
  %8 = tail call ptr @OSSL_LIB_CTX_new() #6
  store ptr %8, ptr @libctx, align 8, !tbaa !11
  %9 = icmp eq ptr %8, null
  br i1 %9, label %.loopexit, label %10

10:                                               ; preds = %7
  %11 = load ptr, ptr @provider_name, align 8, !tbaa !6
  %12 = tail call i32 @strcmp(ptr noundef nonnull dereferenceable(1) %11, ptr noundef nonnull dereferenceable(5) @.str.18) #7
  %13 = icmp eq i32 %12, 0
  br i1 %13, label %14, label %20

14:                                               ; preds = %10
  store i32 0, ptr @self_test_args, align 4, !tbaa !13
  tail call void @OSSL_SELF_TEST_set_callback(ptr noundef nonnull %8, ptr noundef nonnull @self_test_on_load, ptr noundef nonnull @self_test_args) #6
  %15 = load ptr, ptr @libctx, align 8, !tbaa !11
  %16 = tail call i32 @OSSL_LIB_CTX_load_config(ptr noundef %15, ptr noundef %.0) #6
  %.not4 = icmp eq i32 %16, 0
  br i1 %.not4, label %17, label %19

17:                                               ; preds = %14
  %18 = tail call i32 (ptr, ...) @opt_printf_stderr(ptr noundef nonnull @.str.19) #6
  br label %.loopexit

19:                                               ; preds = %14
  tail call void @add_test(ptr noundef nonnull @.str.20, ptr noundef nonnull @test_provider_status) #6
  br label %.loopexit

20:                                               ; preds = %10
  tail call void @add_test(ptr noundef nonnull @.str.21, ptr noundef nonnull @test_provider_gettable_params) #6
  br label %.loopexit

.loopexit:                                        ; preds = %1, %19, %20, %7, %17
  %.02 = phi i32 [ 0, %17 ], [ 0, %7 ], [ 1, %20 ], [ 1, %19 ], [ 0, %1 ]
  ret i32 %.02
}